; Function Attrs: mustprogress nofree norecurse nosync nounwind memory(readwrite, inaccessiblemem: none) uwtable
define hidden void @_ZN19OpenColorIO_v2_4dev11Lut1DOpData5scaleEf(ptr nocapture noundef nonnull readonly align 8 dereferenceable(364) %this, float noundef %scale) local_unnamed_addr #14 align 2 {
entry:
  %cmp.i = fcmp une float %scale, 1.000000e+00
  br i1 %cmp.i, label %if.then.i, label %_ZN19OpenColorIO_v2_4dev6ArrayTIfE5scaleEf.exit

if.then.i:                                        ; preds = %entry
  %m_data.i = getelementptr inbounds i8, ptr %this, i64 200
  %_M_finish.i.i = getelementptr inbounds i8, ptr %this, i64 208
  %0 = load ptr, ptr %_M_finish.i.i, align 8
  %1 = load ptr, ptr %m_data.i, align 8
  %cmp24.not.i = icmp eq ptr %0, %1
  br i1 %cmp24.not.i, label %_ZN19OpenColorIO_v2_4dev6ArrayTIfE5scaleEf.exit, label %for.body.preheader.i

for.body.preheader.i:                             ; preds = %if.then.i
  %sub.ptr.lhs.cast.i.i = ptrtoint ptr %0 to i64
  %sub.ptr.rhs.cast.i.i = ptrtoint ptr %1 to i64
  %sub.ptr.sub.i.i = sub i64 %sub.ptr.lhs.cast.i.i, %sub.ptr.rhs.cast.i.i
  %sub.ptr.div.i.i = ashr exact i64 %sub.ptr.sub.i.i, 2
  %umax.i = tail call i64 @llvm.umax.i64(i64 %sub.ptr.div.i.i, i64 1)
  br label %for.body.i

for.body.i:                                       ; preds = %for.body.i, %for.body.preheader.i
  %i.05.i = phi i64 [ %inc.i, %for.body.i ], [ 0, %for.body.preheader.i ]
  %2 = load ptr, ptr %m_data.i, align 8
  %add.ptr.i.i = getelementptr inbounds float, ptr %2, i64 %i.05.i
  %3 = load float, ptr %add.ptr.i.i, align 4
  %mul.i = fmul float %3, %scale
  store float %mul.i, ptr %add.ptr.i.i, align 4
  %inc.i = add nuw i64 %i.05.i, 1
  %exitcond.not.i = icmp eq i64 %inc.i, %umax.i
  br i1 %exitcond.not.i, label %_ZN19OpenColorIO_v2_4dev6ArrayTIfE5scaleEf.exit, label %for.body.i, !llvm.loop !41

_ZN19OpenColorIO_v2_4dev6ArrayTIfE5scaleEf.exit:  ; preds = %for.body.i, %entry, %if.then.i
  ret void
}